; ModuleID = '22/939.c'
source_filename = "22/939.c"
target datalayout = "e-m:e-p270:32:32-p271:32:32-p272:64:64-i64:64-f80:128-n8:16:32:64-S128"
target triple = "x86_64-pc-linux-gnu"

@.str = private unnamed_addr constant [4 x i8] c"%d,\00", align 1
@.str.1 = private unnamed_addr constant [3 x i8] c"No\00", align 1
@.str.2 = private unnamed_addr constant [3 x i8] c"%d\00", align 1

; Function Attrs: noinline nounwind uwtable
define dso_local i32 @main() #0 {
  %1 = alloca i32, align 4
  %2 = alloca [310 x i32], align 16
  %3 = alloca i32, align 4
  %4 = alloca i32, align 4
  %5 = alloca i32, align 4
  %6 = alloca i32, align 4
  %7 = alloca i32, align 4
  %8 = alloca i32, align 4
  %9 = alloca i32, align 4
  store i32 0, i32* %1, align 4
  store i32 0, i32* %5, align 4
  br label %10

10:                                               ; preds = %17, %0
  %11 = load i32, i32* %5, align 4
  %12 = icmp slt i32 %11, 310
  br i1 %12, label %13, label %20

13:                                               ; preds = %10
  %14 = load i32, i32* %5, align 4
  %15 = sext i32 %14 to i64
  %16 = getelementptr inbounds [310 x i32], [310 x i32]* %2, i64 0, i64 %15
  store i32 -1, i32* %16, align 4
  br label %17

17:                                               ; preds = %13
  %18 = load i32, i32* %5, align 4
  %19 = add nsw i32 %18, 1
  store i32 %19, i32* %5, align 4
  br label %10

20:                                               ; preds = %10
  store i32 0, i32* %6, align 4
  br label %21

21:                                               ; preds = %33, %20
  %22 = load i32, i32* %6, align 4
  %23 = icmp slt i32 %22, 310
  br i1 %23, label %24, label %36

24:                                               ; preds = %21
  %25 = load i32, i32* %6, align 4
  %26 = sext i32 %25 to i64
  %27 = getelementptr inbounds [310 x i32], [310 x i32]* %2, i64 0, i64 %26
  %28 = call i32 (i8*, ...) @__isoc99_scanf(i8* getelementptr inbounds ([4 x i8], [4 x i8]* @.str, i64 0, i64 0), i32* %27)
  %29 = icmp eq i32 %28, -1
  br i1 %29, label %30, label %32

30:                                               ; preds = %24
  %31 = load i32, i32* %6, align 4
  store i32 %31, i32* %3, align 4
  br label %36

32:                                               ; preds = %24
  br label %33

33:                                               ; preds = %32
  %34 = load i32, i32* %6, align 4
  %35 = add nsw i32 %34, 1
  store i32 %35, i32* %6, align 4
  br label %21

36:                                               ; preds = %30, %21
  %37 = getelementptr inbounds [310 x i32], [310 x i32]* %2, i64 0, i64 0
  %38 = load i32, i32* %37, align 16
  store i32 %38, i32* %4, align 4
  store i32 1, i32* %7, align 4
  br label %39

39:                                               ; preds = %56, %36
  %40 = load i32, i32* %7, align 4
  %41 = load i32, i32* %3, align 4
  %42 = icmp slt i32 %40, %41
  br i1 %42, label %43, label %59

43:                                               ; preds = %39
  %44 = load i32, i32* %7, align 4
  %45 = sext i32 %44 to i64
  %46 = getelementptr inbounds [310 x i32], [310 x i32]* %2, i64 0, i64 %45
  %47 = load i32, i32* %46, align 4
  %48 = load i32, i32* %4, align 4
  %49 = icmp sgt i32 %47, %48
  br i1 %49, label %50, label %55

50:                                               ; preds = %43
  %51 = load i32, i32* %7, align 4
  %52 = sext i32 %51 to i64
  %53 = getelementptr inbounds [310 x i32], [310 x i32]* %2, i64 0, i64 %52
  %54 = load i32, i32* %53, align 4
  store i32 %54, i32* %4, align 4
  br label %55

55:                                               ; preds = %50, %43
  br label %56

56:                                               ; preds = %55
  %57 = load i32, i32* %7, align 4
  %58 = add nsw i32 %57, 1
  store i32 %58, i32* %7, align 4
  br label %39

59:                                               ; preds = %39
  store i32 0, i32* %8, align 4
  br label %60

60:                                               ; preds = %76, %59
  %61 = load i32, i32* %8, align 4
  %62 = load i32, i32* %3, align 4
  %63 = icmp slt i32 %61, %62
  br i1 %63, label %64, label %79

64:                                               ; preds = %60
  %65 = load i32, i32* %8, align 4
  %66 = sext i32 %65 to i64
  %67 = getelementptr inbounds [310 x i32], [310 x i32]* %2, i64 0, i64 %66
  %68 = load i32, i32* %67, align 4
  %69 = load i32, i32* %4, align 4
  %70 = icmp eq i32 %68, %69
  br i1 %70, label %71, label %75

71:                                               ; preds = %64
  %72 = load i32, i32* %8, align 4
  %73 = sext i32 %72 to i64
  %74 = getelementptr inbounds [310 x i32], [310 x i32]* %2, i64 0, i64 %73
  store i32 -1, i32* %74, align 4
  br label %75

75:                                               ; preds = %71, %64
  br label %76

76:                                               ; preds = %75
  %77 = load i32, i32* %8, align 4
  %78 = add nsw i32 %77, 1
  store i32 %78, i32* %8, align 4
  br label %60

79:                                               ; preds = %60
  %80 = getelementptr inbounds [310 x i32], [310 x i32]* %2, i64 0, i64 0
  %81 = load i32, i32* %80, align 16
  store i32 %81, i32* %4, align 4
  store i32 1, i32* %9, align 4
  br label %82

82:                                               ; preds = %99, %79
  %83 = load i32, i32* %9, align 4
  %84 = load i32, i32* %3, align 4
  %85 = icmp slt i32 %83, %84
  br i1 %85, label %86, label %102

86:                                               ; preds = %82
  %87 = load i32, i32* %9, align 4
  %88 = sext i32 %87 to i64
  %89 = getelementptr inbounds [310 x i32], [310 x i32]* %2, i64 0, i64 %88
  %90 = load i32, i32* %89, align 4
  %91 = load i32, i32* %4, align 4
  %92 = icmp sgt i32 %90, %91
  br i1 %92, label %93, label %98

93:                                               ; preds = %86
  %94 = load i32, i32* %9, align 4
  %95 = sext i32 %94 to i64
  %96 = getelementptr inbounds [310 x i32], [310 x i32]* %2, i64 0, i64 %95
  %97 = load i32, i32* %96, align 4
  store i32 %97, i32* %4, align 4
  br label %98

98:                                               ; preds = %93, %86
  br label %99

99:                                               ; preds = %98
  %100 = load i32, i32* %9, align 4
  %101 = add nsw i32 %100, 1
  store i32 %101, i32* %9, align 4
  br label %82

102:                                              ; preds = %82
  %103 = load i32, i32* %4, align 4
  %104 = icmp eq i32 %103, -1
  br i1 %104, label %105, label %107

105:                                              ; preds = %102
  %106 = call i32 (i8*, ...) @printf(i8* getelementptr inbounds ([3 x i8], [3 x i8]* @.str.1, i64 0, i64 0))
  br label %110

107:                                              ; preds = %102
  %108 = load i32, i32* %4, align 4
  %109 = call i32 (i8*, ...) @printf(i8* getelementptr inbounds ([3 x i8], [3 x i8]* @.str.2, i64 0, i64 0), i32 %108)
  br label %110

110:                                              ; preds = %107, %105
  %111 = load i32, i32* %1, align 4
  ret i32 %111
}

declare dso_local i32 @__isoc99_scanf(i8*, ...) #1

declare dso_local i32 @printf(i8*, ...) #1


!llvm.module.flags = !{!0}
!llvm.ident = !{!1}

!0 = !{i32 1, !"wchar_size", i32 4}
!1 = !{!"clang version 10.0.0-4ubuntu1 "}
